target datalayout = "e-m:e-p270:32:32-p271:32:32-p272:64:64-i64:64-i128:128-f80:128-n8:16:32:64-S128"
target triple = "x86_64-pc-linux-gnu"

@stderr = external global ptr, align 8
@.str = private unnamed_addr constant [21 x i8] c"\0AWARNING during %s:\0A\00", align 1
@.str.1 = private unnamed_addr constant [13 x i8] c"int64 value \00", align 1
@.str.2 = private unnamed_addr constant [4 x i8] c"%ld\00", align 1
@.str.3 = private unnamed_addr constant [40 x i8] c" does not fit in int, converted to %d\0A\0A\00", align 1

; Function Attrs: mustprogress nounwind uwtable
define noundef i32 @_Z12int64_to_intlPKc(i64 noundef %0, ptr noundef %1) #0 {
  %3 = alloca i64, align 8
  %4 = alloca ptr, align 8
  %5 = alloca i32, align 4
  store i64 %0, ptr %3, align 8
  store ptr %1, ptr %4, align 8
  %6 = load i64, ptr %3, align 8
  %7 = trunc i64 %6 to i32
  store i32 %7, ptr %5, align 4
  %8 = load ptr, ptr %4, align 8
  %9 = icmp ne ptr %8, null
  br i1 %9, label %10, label %27

10:                                               ; preds = %2
  %11 = load i32, ptr %5, align 4
  %12 = sext i32 %11 to i64
  %13 = load i64, ptr %3, align 8
  %14 = icmp ne i64 %12, %13
  br i1 %14, label %15, label %27

15:                                               ; preds = %10
  %16 = load ptr, ptr @stderr, align 8
  %17 = load ptr, ptr %4, align 8
  %18 = call i32 (ptr, ptr, ...) @fprintf(ptr noundef %16, ptr noundef @.str, ptr noundef %17) #2
  %19 = load ptr, ptr @stderr, align 8
  %20 = call i32 (ptr, ptr, ...) @fprintf(ptr noundef %19, ptr noundef @.str.1) #2
  %21 = load ptr, ptr @stderr, align 8
  %22 = load i64, ptr %3, align 8
  %23 = call i32 (ptr, ptr, ...) @fprintf(ptr noundef %21, ptr noundef @.str.2, i64 noundef %22) #2
  %24 = load ptr, ptr @stderr, align 8
  %25 = load i32, ptr %5, align 4
  %26 = call i32 (ptr, ptr, ...) @fprintf(ptr noundef %24, ptr noundef @.str.3, i32 noundef %25) #2
  br label %27

27:                                               ; preds = %15, %10, %2
  %28 = load i32, ptr %5, align 4
  ret i32 %28
}

; Function Attrs: nounwind
declare i32 @fprintf(ptr noundef, ptr noundef, ...) #1


!llvm.module.flags = !{!0, !1, !2, !3, !4}

!0 = !{i32 1, !"wchar_size", i32 4}
!1 = !{i32 7, !"openmp", i32 51}
!2 = !{i32 8, !"PIC Level", i32 2}
!3 = !{i32 7, !"uwtable", i32 2}
!4 = !{i32 7, !"frame-pointer", i32 2}
