; ModuleID = 'bench/gromacs/original/int64_to_int.cpp.ll'
source_filename = "bench/gromacs/original/int64_to_int.cpp.ll"
target datalayout = "e-m:e-p270:32:32-p271:32:32-p272:64:64-i64:64-i128:128-f80:128-n8:16:32:64-S128"
target triple = "x86_64-pc-linux-gnu"

@stderr = external local_unnamed_addr global ptr, align 8
@.str = private unnamed_addr constant [21 x i8] c"\0AWARNING during %s:\0A\00", align 1
@.str.1 = private unnamed_addr constant [13 x i8] c"int64 value \00", align 1
@.str.2 = private unnamed_addr constant [4 x i8] c"%ld\00", align 1
@.str.3 = private unnamed_addr constant [40 x i8] c" does not fit in int, converted to %d\0A\0A\00", align 1

; Function Attrs: mustprogress nofree nounwind uwtable
define noundef i32 @_Z12int64_to_intlPKc(i64 noundef %0, ptr noundef %1) local_unnamed_addr #0 {
  %3 = trunc i64 %0 to i32
  %.not = icmp eq ptr %1, null
  %4 = add i64 %0, 2147483648
  %.not8 = icmp ult i64 %4, 4294967296
  %or.cond = or i1 %.not, %.not8
  br i1 %or.cond, label %14, label %5

5:                                                ; preds = %2
  %6 = load ptr, ptr @stderr, align 8
  %7 = tail call i32 (ptr, ptr, ...) @fprintf(ptr noundef %6, ptr noundef nonnull @.str, ptr noundef nonnull %1) #3
  %8 = load ptr, ptr @stderr, align 8
  %9 = tail call i64 @fwrite(ptr nonnull @.str.1, i64 12, i64 1, ptr %8) #4
  %10 = load ptr, ptr @stderr, align 8
  %11 = tail call i32 (ptr, ptr, ...) @fprintf(ptr noundef %10, ptr noundef nonnull @.str.2, i64 noundef %0) #3
  %12 = load ptr, ptr @stderr, align 8
  %13 = tail call i32 (ptr, ptr, ...) @fprintf(ptr noundef %12, ptr noundef nonnull @.str.3, i32 noundef %3) #3
  br label %14

14:                                               ; preds = %5, %2
  ret i32 %3
}

; Function Attrs: nofree nounwind
declare noundef i32 @fprintf(ptr nocapture noundef, ptr nocapture noundef readonly, ...) local_unnamed_addr #1

; Function Attrs: nofree nounwind
declare noundef i64 @fwrite(ptr nocapture noundef, i64 noundef, i64 noundef, ptr nocapture noundef) local_unnamed_addr #2


!llvm.module.flags = !{!0, !1, !2, !3, !4}

!0 = !{i32 1, !"wchar_size", i32 4}
!1 = !{i32 7, !"openmp", i32 51}
!2 = !{i32 8, !"PIC Level", i32 2}
!3 = !{i32 7, !"uwtable", i32 2}
!4 = !{i32 7, !"frame-pointer", i32 2}
